target datalayout = "e-m:e-p270:32:32-p271:32:32-p272:64:64-i64:64-i128:128-f80:128-n8:16:32:64-S128"
target triple = "x86_64-pc-linux-gnu"

%class.QPalette = type <{ ptr, %union.anon, [4 x i8] }>
%union.anon = type { %"struct.QPalette::Data" }
%"struct.QPalette::Data" = type { i32 }
%class.QIcon = type { ptr }
%class.QString = type { ptr }
%class.QPoint = type { i32, i32 }
%class.QRect = type { i32, i32, i32, i32 }
%class.QSize = type { i32, i32 }
%class.QStylePainter = type { %class.QPainter, ptr, ptr }
%class.QPainter = type { %class.QScopedPointer.8 }
%class.QScopedPointer.8 = type { ptr }
%class.QStyleOptionToolButton = type { %class.QStyleOptionComplex, %class.QFlags.12, %class.QIcon, %class.QSize, %class.QString, i32, i32, %class.QPoint, %class.QFont }
%class.QStyleOptionComplex = type { %class.QStyleOption, %class.QFlags.11, %class.QFlags.11 }
%class.QStyleOption = type { i32, i32, %class.QFlags.9, i32, %class.QRect, %class.QFontMetrics, %class.QPalette, ptr }
%class.QFlags.9 = type { i32 }
%class.QFontMetrics = type { %class.QExplicitlySharedDataPointer.10 }
%class.QExplicitlySharedDataPointer.10 = type { ptr }
%class.QFlags.11 = type { i32 }
%class.QFlags.12 = type { i32 }
%class.QFont = type <{ %class.QExplicitlySharedDataPointer.10, i32, [4 x i8] }>

; Function Attrs: mustprogress uwtable
define linkonce_odr noundef zeroext i1 @_ZN13QStylePainter5beginEP12QPaintDeviceP7QWidget(ptr noundef nonnull align 8 dereferenceable(24) %0, ptr noundef %1, ptr noundef %2) #2 comdat align 2 {
  %4 = alloca ptr, align 8
  %5 = alloca ptr, align 8
  %6 = alloca ptr, align 8
  store ptr %0, ptr %4, align 8
  store ptr %1, ptr %5, align 8
  store ptr %2, ptr %6, align 8
  %7 = load ptr, ptr %4, align 8
  %8 = load ptr, ptr %6, align 8
  %9 = getelementptr inbounds %class.QStylePainter, ptr %7, i32 0, i32 1
  store ptr %8, ptr %9, align 8
  %10 = load ptr, ptr %6, align 8
  %11 = call noundef ptr @_ZNK7QWidget5styleEv(ptr noundef nonnull align 8 dereferenceable(48) %10)
  %12 = getelementptr inbounds %class.QStylePainter, ptr %7, i32 0, i32 2
  store ptr %11, ptr %12, align 8
  %13 = load ptr, ptr %5, align 8
  %14 = call noundef zeroext i1 @_ZN8QPainter5beginEP12QPaintDevice(ptr noundef nonnull align 8 dereferenceable(8) %7, ptr noundef %13)
  ret i1 %14
}

; Function Attrs: mustprogress nounwind uwtable
define linkonce_odr void @_ZN13QStylePainterD2Ev(ptr noundef nonnull align 8 dereferenceable(24) %0) unnamed_addr #1 comdat align 2 {
  %2 = alloca ptr, align 8
  store ptr %0, ptr %2, align 8
  %3 = load ptr, ptr %2, align 8
  call void @_ZN8QPainterD2Ev(ptr noundef nonnull align 8 dereferenceable(8) %3) #9
  ret void
}

; Function Attrs: mustprogress uwtable
define linkonce_odr void @_ZN13QStylePainter18drawComplexControlEN6QStyle14ComplexControlERK19QStyleOptionComplex(ptr noundef nonnull align 8 dereferenceable(24) %0, i32 noundef %1, ptr noundef nonnull align 8 dereferenceable(72) %2) #2 comdat align 2 {
  %4 = alloca ptr, align 8
  %5 = alloca i32, align 4
  %6 = alloca ptr, align 8
  store ptr %0, ptr %4, align 8
  store i32 %1, ptr %5, align 4
  store ptr %2, ptr %6, align 8
  %7 = load ptr, ptr %4, align 8
  %8 = getelementptr inbounds %class.QStylePainter, ptr %7, i32 0, i32 2
  %9 = load ptr, ptr %8, align 8
  %10 = load i32, ptr %5, align 4
  %11 = load ptr, ptr %6, align 8
  %12 = getelementptr inbounds %class.QStylePainter, ptr %7, i32 0, i32 1
  %13 = load ptr, ptr %12, align 8
  %14 = load ptr, ptr %9, align 8
  %15 = getelementptr inbounds ptr, ptr %14, i64 25
  %16 = load ptr, ptr %15, align 8
  call void %16(ptr noundef nonnull align 8 dereferenceable(16) %9, i32 noundef %10, ptr noundef %11, ptr noundef %7, ptr noundef %13)
  ret void
}

; Function Attrs: mustprogress nounwind uwtable
define linkonce_odr noundef nonnull align 4 dereferenceable(4) ptr @_ZN6QFlagsIN22QStyleOptionToolButton17ToolButtonFeatureEEaNEi(ptr noundef nonnull align 4 dereferenceable(4) %0, i32 noundef %1) #1 comdat align 2 {
  %3 = alloca ptr, align 8
  %4 = alloca i32, align 4
  store ptr %0, ptr %3, align 8
  store i32 %1, ptr %4, align 4
  %5 = load ptr, ptr %3, align 8
  %6 = load i32, ptr %4, align 4
  %7 = getelementptr inbounds %class.QFlags.12, ptr %5, i32 0, i32 0
  %8 = load i32, ptr %7, align 4
  %9 = and i32 %8, %6
  store i32 %9, ptr %7, align 4
  ret ptr %5
}

; Function Attrs: mustprogress uwtable
define linkonce_odr void @_ZN13QStylePainterC2EP7QWidget(ptr noundef nonnull align 8 dereferenceable(24) %0, ptr noundef %1) unnamed_addr #2 comdat align 2 personality ptr @__gxx_personality_v0 {
  %3 = alloca ptr, align 8
  %4 = alloca ptr, align 8
  %5 = alloca ptr, align 8
  %6 = alloca i32, align 4
  store ptr %0, ptr %3, align 8
  store ptr %1, ptr %4, align 8
  %7 = load ptr, ptr %3, align 8
  call void @_ZN8QPainterC2Ev(ptr noundef nonnull align 8 dereferenceable(8) %7)
  %8 = load ptr, ptr %4, align 8
  %9 = icmp eq ptr %8, null
  br i1 %9, label %12, label %10

10:                                               ; preds = %2
  %11 = getelementptr inbounds i8, ptr %8, i64 16
  br label %12

12:                                               ; preds = %10, %2
  %13 = phi ptr [ %11, %10 ], [ null, %2 ]
  %14 = load ptr, ptr %4, align 8
  %15 = invoke noundef zeroext i1 @_ZN13QStylePainter5beginEP12QPaintDeviceP7QWidget(ptr noundef nonnull align 8 dereferenceable(24) %7, ptr noundef %13, ptr noundef %14)
          to label %16 unwind label %17

16:                                               ; preds = %12
  ret void

17:                                               ; preds = %12
  %18 = landingpad { ptr, i32 }
          cleanup
  %19 = extractvalue { ptr, i32 } %18, 0
  store ptr %19, ptr %5, align 8
  %20 = extractvalue { ptr, i32 } %18, 1
  store i32 %20, ptr %6, align 4
  call void @_ZN8QPainterD2Ev(ptr noundef nonnull align 8 dereferenceable(8) %7) #9
  br label %21

21:                                               ; preds = %17
  %22 = load ptr, ptr %5, align 8
  %23 = load i32, ptr %6, align 4
  %24 = insertvalue { ptr, i32 } poison, ptr %22, 0
  %25 = insertvalue { ptr, i32 } %24, i32 %23, 1
  resume { ptr, i32 } %25
}

; Function Attrs: mustprogress uwtable
define void @_ZN12MyToolButton10paintEventEP11QPaintEvent(ptr noundef nonnull align 8 dereferenceable(48) %0, ptr noundef %1) unnamed_addr #2 align 2 personality ptr @__gxx_personality_v0 {
  %3 = alloca ptr, align 8
  %4 = alloca ptr, align 8
  %5 = alloca %class.QStylePainter, align 8
  %6 = alloca %class.QStyleOptionToolButton, align 8
  %7 = alloca ptr, align 8
  %8 = alloca i32, align 4
  store ptr %0, ptr %3, align 8
  store ptr %1, ptr %4, align 8
  %9 = load ptr, ptr %3, align 8
  call void @_ZN13QStylePainterC2EP7QWidget(ptr noundef nonnull align 8 dereferenceable(24) %5, ptr noundef %9)
  invoke void @_ZN22QStyleOptionToolButtonC1Ev(ptr noundef nonnull align 8 dereferenceable(136) %6)
          to label %10 unwind label %15

10:                                               ; preds = %2
  invoke void @_ZNK11QToolButton15initStyleOptionEP22QStyleOptionToolButton(ptr noundef nonnull align 8 dereferenceable(48) %9, ptr noundef %6)
          to label %11 unwind label %19

11:                                               ; preds = %10
  %12 = getelementptr inbounds %class.QStyleOptionToolButton, ptr %6, i32 0, i32 1
  %13 = call noundef nonnull align 4 dereferenceable(4) ptr @_ZN6QFlagsIN22QStyleOptionToolButton17ToolButtonFeatureEEaNEi(ptr noundef nonnull align 4 dereferenceable(4) %12, i32 noundef -17) #9
  invoke void @_ZN13QStylePainter18drawComplexControlEN6QStyle14ComplexControlERK19QStyleOptionComplex(ptr noundef nonnull align 8 dereferenceable(24) %5, i32 noundef 4, ptr noundef nonnull align 8 dereferenceable(72) %6)
          to label %14 unwind label %19

14:                                               ; preds = %11
  call void @_ZN22QStyleOptionToolButtonD2Ev(ptr noundef nonnull align 8 dereferenceable(136) %6) #9
  call void @_ZN13QStylePainterD2Ev(ptr noundef nonnull align 8 dereferenceable(24) %5) #9
  ret void

15:                                               ; preds = %2
  %16 = landingpad { ptr, i32 }
          cleanup
  %17 = extractvalue { ptr, i32 } %16, 0
  store ptr %17, ptr %7, align 8
  %18 = extractvalue { ptr, i32 } %16, 1
  store i32 %18, ptr %8, align 4
  br label %23

19:                                               ; preds = %11, %10
  %20 = landingpad { ptr, i32 }
          cleanup
  %21 = extractvalue { ptr, i32 } %20, 0
  store ptr %21, ptr %7, align 8
  %22 = extractvalue { ptr, i32 } %20, 1
  store i32 %22, ptr %8, align 4
  call void @_ZN22QStyleOptionToolButtonD2Ev(ptr noundef nonnull align 8 dereferenceable(136) %6) #9
  br label %23

23:                                               ; preds = %19, %15
  call void @_ZN13QStylePainterD2Ev(ptr noundef nonnull align 8 dereferenceable(24) %5) #9
  br label %24

24:                                               ; preds = %23
  %25 = load ptr, ptr %7, align 8
  %26 = load i32, ptr %8, align 4
  %27 = insertvalue { ptr, i32 } poison, ptr %25, 0
  %28 = insertvalue { ptr, i32 } %27, i32 %26, 1
  resume { ptr, i32 } %28
}