; Function Attrs: mustprogress uwtable
define void @_ZN12MyToolButton10paintEventEP11QPaintEvent(ptr noundef nonnull align 8 dereferenceable(48) %0, ptr nocapture noundef readnone %1) unnamed_addr #2 align 2 personality ptr @__gxx_personality_v0 {
  %3 = alloca %class.QStylePainter, align 8
  %4 = alloca %class.QStyleOptionToolButton, align 8
  call void @_ZN8QPainterC2Ev(ptr noundef nonnull align 8 dereferenceable(8) %3)
  %5 = getelementptr inbounds i8, ptr %3, i64 8
  store ptr %0, ptr %5, align 8
  %6 = invoke noundef ptr @_ZNK7QWidget5styleEv(ptr noundef nonnull align 8 dereferenceable(48) %0)
          to label %.noexc.i unwind label %10

.noexc.i:                                         ; preds = %2
  %7 = getelementptr inbounds i8, ptr %0, i64 16
  %8 = getelementptr inbounds i8, ptr %3, i64 16
  store ptr %6, ptr %8, align 8
  %9 = invoke noundef zeroext i1 @_ZN8QPainter5beginEP12QPaintDevice(ptr noundef nonnull align 8 dereferenceable(8) %3, ptr noundef nonnull %7)
          to label %_ZN13QStylePainterC2EP7QWidget.exit unwind label %10

common.resume:                                    ; preds = %29, %31, %10
  %common.resume.op = phi { ptr, i32 } [ %11, %10 ], [ %32, %31 ], [ %30, %29 ]
  call void @_ZN8QPainterD2Ev(ptr noundef nonnull align 8 dereferenceable(8) %3) #11
  resume { ptr, i32 } %common.resume.op

10:                                               ; preds = %.noexc.i, %2
  %11 = landingpad { ptr, i32 }
          cleanup
  br label %common.resume

_ZN13QStylePainterC2EP7QWidget.exit:              ; preds = %.noexc.i
  invoke void @_ZN22QStyleOptionToolButtonC1Ev(ptr noundef nonnull align 8 dereferenceable(136) %4)
          to label %12 unwind label %29

12:                                               ; preds = %_ZN13QStylePainterC2EP7QWidget.exit
  invoke void @_ZNK11QToolButton15initStyleOptionEP22QStyleOptionToolButton(ptr noundef nonnull align 8 dereferenceable(48) %0, ptr noundef nonnull %4)
          to label %13 unwind label %31

13:                                               ; preds = %12
  %14 = getelementptr inbounds i8, ptr %4, i64 72
  %15 = load i32, ptr %14, align 8
  %16 = and i32 %15, -17
  store i32 %16, ptr %14, align 8
  %17 = load ptr, ptr %8, align 8
  %18 = load ptr, ptr %5, align 8
  %19 = load ptr, ptr %17, align 8
  %20 = getelementptr inbounds i8, ptr %19, i64 200
  %21 = load ptr, ptr %20, align 8
  invoke void %21(ptr noundef nonnull align 8 dereferenceable(16) %17, i32 noundef 4, ptr noundef nonnull %4, ptr noundef nonnull %3, ptr noundef %18)
          to label %_ZN13QStylePainter18drawComplexControlEN6QStyle14ComplexControlERK19QStyleOptionComplex.exit unwind label %31

_ZN13QStylePainter18drawComplexControlEN6QStyle14ComplexControlERK19QStyleOptionComplex.exit: ; preds = %13
  %22 = getelementptr inbounds i8, ptr %4, i64 120
  call void @_ZN5QFontD1Ev(ptr noundef nonnull align 8 dereferenceable(12) %22) #11
  %23 = getelementptr inbounds i8, ptr %4, i64 96
  %24 = load ptr, ptr %23, align 8
  %25 = load atomic i32, ptr %24 monotonic, align 4
  switch i32 %25, label %_ZN9QtPrivate8RefCount5derefEv.exit.i.i [
    i32 0, label %_ZN9QtPrivate8RefCount5derefEv.exit.thread2.i.i
    i32 -1, label %_ZN22QStyleOptionToolButtonD2Ev.exit
  ]

_ZN9QtPrivate8RefCount5derefEv.exit.i.i:          ; preds = %_ZN13QStylePainter18drawComplexControlEN6QStyle14ComplexControlERK19QStyleOptionComplex.exit
  %26 = atomicrmw sub ptr %24, i32 1 seq_cst, align 4
  %.not.i.i = icmp eq i32 %26, 1
  br i1 %.not.i.i, label %_ZN9QtPrivate8RefCount5derefEv.exit._ZN9QtPrivate8RefCount5derefEv.exit.thread2_crit_edge.i.i, label %_ZN22QStyleOptionToolButtonD2Ev.exit

_ZN9QtPrivate8RefCount5derefEv.exit._ZN9QtPrivate8RefCount5derefEv.exit.thread2_crit_edge.i.i: ; preds = %_ZN9QtPrivate8RefCount5derefEv.exit.i.i
  %.pre.i.i = load ptr, ptr %23, align 8
  br label %_ZN9QtPrivate8RefCount5derefEv.exit.thread2.i.i

_ZN9QtPrivate8RefCount5derefEv.exit.thread2.i.i:  ; preds = %_ZN9QtPrivate8RefCount5derefEv.exit._ZN9QtPrivate8RefCount5derefEv.exit.thread2_crit_edge.i.i, %_ZN13QStylePainter18drawComplexControlEN6QStyle14ComplexControlERK19QStyleOptionComplex.exit
  %27 = phi ptr [ %.pre.i.i, %_ZN9QtPrivate8RefCount5derefEv.exit._ZN9QtPrivate8RefCount5derefEv.exit.thread2_crit_edge.i.i ], [ %24, %_ZN13QStylePainter18drawComplexControlEN6QStyle14ComplexControlERK19QStyleOptionComplex.exit ]
  call void @_ZN10QArrayData10deallocateEPS_mm(ptr noundef %27, i64 noundef 2, i64 noundef 8) #11
  br label %_ZN22QStyleOptionToolButtonD2Ev.exit

_ZN22QStyleOptionToolButtonD2Ev.exit:             ; preds = %_ZN13QStylePainter18drawComplexControlEN6QStyle14ComplexControlERK19QStyleOptionComplex.exit, %_ZN9QtPrivate8RefCount5derefEv.exit.i.i, %_ZN9QtPrivate8RefCount5derefEv.exit.thread2.i.i
  %28 = getelementptr inbounds i8, ptr %4, i64 80
  call void @_ZN5QIconD1Ev(ptr noundef nonnull align 8 dereferenceable(8) %28) #11
  call void @_ZN12QStyleOptionD2Ev(ptr noundef nonnull align 8 dereferenceable(64) %4) #11
  call void @_ZN8QPainterD2Ev(ptr noundef nonnull align 8 dereferenceable(8) %3) #11
  ret void

29:                                               ; preds = %_ZN13QStylePainterC2EP7QWidget.exit
  %30 = landingpad { ptr, i32 }
          cleanup
  br label %common.resume

31:                                               ; preds = %13, %12
  %32 = landingpad { ptr, i32 }
          cleanup
  call void @_ZN22QStyleOptionToolButtonD2Ev(ptr noundef nonnull align 8 dereferenceable(136) %4) #11
  br label %common.resume
}